target datalayout = "e-m:e-p270:32:32-p271:32:32-p272:64:64-i64:64-i128:128-f80:128-n8:16:32:64-S128"
target triple = "x86_64-pc-linux-gnu"

%struct.AVRational = type { i32, i32 }
%struct.AVCodecContext = type { ptr, i32, i32, ptr, i32, i32, ptr, ptr, ptr, i64, i32, i32, ptr, i32, %struct.AVRational, %struct.AVRational, %struct.AVRational, i32, i32, i32, i32, i32, %struct.AVRational, i32, i32, i32, i32, i32, i32, i32, i32, i32, i32, i32, ptr, ptr, i32, float, float, float, float, float, float, float, float, float, i32, i32, i32, i32, i32, i32, i32, i32, i32, i32, i32, i32, ptr, ptr, ptr, i32, i32, i32, i32, i32, i32, i32, i32, i32, i32, %struct.AVChannelLayout, i32, i32, i32, i32, i32, i32, i32, i32, ptr, i32, i32, i32, float, float, i32, i32, i32, i32, i32, ptr, i64, i64, float, float, i32, i32, ptr, ptr, i32, i32, i32, i32, i32, ptr, ptr, ptr, ptr, i32, i32, [8 x i64], i32, i32, i32, i32, i32, i32, i32, ptr, ptr, i32, i32, i32, i32, i32, i32, i32, i32, i32, i32, ptr, ptr, i32, i32, ptr, ptr, ptr, ptr, i32, i32, i64, i32, i32, i64, ptr, i64, ptr, i32, ptr, i32 }
%struct.AVChannelLayout = type { i32, i32, %union.anon, ptr }
%union.anon = type { i64 }
%struct.AVCodecInternal = type { i32, i32, i32, ptr, ptr, ptr, ptr, ptr, ptr, ptr, i32, ptr, ptr, ptr, i32, i32, ptr, i32, ptr, ptr, i32, i32 }
%struct.AVPacket = type { ptr, i64, i64, ptr, i32, i32, i32, ptr, i32, i64, i64, ptr, ptr, %struct.AVRational }
%struct.DecodeContext = type { %struct.AVCodecInternal, i32, i32, i32, i32, i64, i64, i64, i64, i64, ptr, i32, i32, i32 }
%struct.AVFrame = type { [8 x ptr], [8 x i32], ptr, i32, i32, i32, i32, i32, %struct.AVRational, i64, i64, %struct.AVRational, i32, ptr, i32, i32, [8 x ptr], ptr, i32, ptr, i32, i32, i32, i32, i32, i32, i32, i64, ptr, i32, ptr, ptr, i64, i64, i64, i64, ptr, %struct.AVChannelLayout, i64 }

; Function Attrs: nounwind uwtable
define internal ptr @decode_ctx(ptr noundef %0) #0 {
  %2 = alloca ptr, align 8
  store ptr %0, ptr %2, align 8, !tbaa !31
  %3 = load ptr, ptr %2, align 8, !tbaa !31
  ret ptr %3
}

; Function Attrs: nounwind uwtable
define i32 @avcodec_send_packet(ptr noundef %0, ptr noundef %1) #0 {
  %3 = alloca i32, align 4
  %4 = alloca ptr, align 8
  %5 = alloca ptr, align 8
  %6 = alloca ptr, align 8
  %7 = alloca ptr, align 8
  %8 = alloca i32, align 4
  %9 = alloca i32, align 4
  store ptr %0, ptr %4, align 8, !tbaa !4
  store ptr %1, ptr %5, align 8, !tbaa !9
  call void @llvm.lifetime.start.p0(i64 8, ptr %6) #11
  %10 = load ptr, ptr %4, align 8, !tbaa !4
  %11 = getelementptr inbounds nuw %struct.AVCodecContext, ptr %10, i32 0, i32 7
  %12 = load ptr, ptr %11, align 8, !tbaa !11
  store ptr %12, ptr %6, align 8, !tbaa !31
  call void @llvm.lifetime.start.p0(i64 8, ptr %7) #11
  %13 = load ptr, ptr %6, align 8, !tbaa !31
  %14 = call ptr @decode_ctx(ptr noundef %13)
  store ptr %14, ptr %7, align 8, !tbaa !32
  call void @llvm.lifetime.start.p0(i64 4, ptr %8) #11
  %15 = load ptr, ptr %4, align 8, !tbaa !4
  %16 = call i32 @avcodec_is_open(ptr noundef %15)
  %17 = icmp ne i32 %16, 0
  br i1 %17, label %18, label %24

18:                                               ; preds = %2
  %19 = load ptr, ptr %4, align 8, !tbaa !4
  %20 = getelementptr inbounds nuw %struct.AVCodecContext, ptr %19, i32 0, i32 3
  %21 = load ptr, ptr %20, align 8, !tbaa !50
  %22 = call i32 @av_codec_is_decoder(ptr noundef %21)
  %23 = icmp ne i32 %22, 0
  br i1 %23, label %25, label %24

24:                                               ; preds = %18, %2
  store i32 -22, ptr %3, align 4
  store i32 1, ptr %9, align 4
  br label %118

25:                                               ; preds = %18
  %26 = load ptr, ptr %7, align 8, !tbaa !32
  %27 = getelementptr inbounds nuw %struct.DecodeContext, ptr %26, i32 0, i32 4
  %28 = load i32, ptr %27, align 4, !tbaa !46
  %29 = icmp ne i32 %28, 0
  br i1 %29, label %30, label %31

30:                                               ; preds = %25
  store i32 -541478725, ptr %3, align 4
  store i32 1, ptr %9, align 4
  br label %118

31:                                               ; preds = %25
  %32 = load ptr, ptr %5, align 8, !tbaa !9
  %33 = icmp ne ptr %32, null
  br i1 %33, label %34, label %45

34:                                               ; preds = %31
  %35 = load ptr, ptr %5, align 8, !tbaa !9
  %36 = getelementptr inbounds nuw %struct.AVPacket, ptr %35, i32 0, i32 4
  %37 = load i32, ptr %36, align 8, !tbaa !95
  %38 = icmp ne i32 %37, 0
  br i1 %38, label %45, label %39

39:                                               ; preds = %34
  %40 = load ptr, ptr %5, align 8, !tbaa !9
  %41 = getelementptr inbounds nuw %struct.AVPacket, ptr %40, i32 0, i32 3
  %42 = load ptr, ptr %41, align 8, !tbaa !43
  %43 = icmp ne ptr %42, null
  br i1 %43, label %44, label %45

44:                                               ; preds = %39
  store i32 -22, ptr %3, align 4
  store i32 1, ptr %9, align 4
  br label %118

45:                                               ; preds = %39, %34, %31
  %46 = load ptr, ptr %5, align 8, !tbaa !9
  %47 = icmp ne ptr %46, null
  br i1 %47, label %48, label %84

48:                                               ; preds = %45
  %49 = load ptr, ptr %5, align 8, !tbaa !9
  %50 = getelementptr inbounds nuw %struct.AVPacket, ptr %49, i32 0, i32 3
  %51 = load ptr, ptr %50, align 8, !tbaa !43
  %52 = icmp ne ptr %51, null
  br i1 %52, label %58, label %53

53:                                               ; preds = %48
  %54 = load ptr, ptr %5, align 8, !tbaa !9
  %55 = getelementptr inbounds nuw %struct.AVPacket, ptr %54, i32 0, i32 8
  %56 = load i32, ptr %55, align 8, !tbaa !45
  %57 = icmp ne i32 %56, 0
  br i1 %57, label %58, label %84

58:                                               ; preds = %53, %48
  %59 = load ptr, ptr %6, align 8, !tbaa !31
  %60 = getelementptr inbounds nuw %struct.AVCodecInternal, ptr %59, i32 0, i32 18
  %61 = load ptr, ptr %60, align 8, !tbaa !42
  %62 = getelementptr inbounds nuw %struct.AVPacket, ptr %61, i32 0, i32 3
  %63 = load ptr, ptr %62, align 8, !tbaa !43
  %64 = icmp ne ptr %63, null
  br i1 %64, label %72, label %65

65:                                               ; preds = %58
  %66 = load ptr, ptr %6, align 8, !tbaa !31
  %67 = getelementptr inbounds nuw %struct.AVCodecInternal, ptr %66, i32 0, i32 18
  %68 = load ptr, ptr %67, align 8, !tbaa !42
  %69 = getelementptr inbounds nuw %struct.AVPacket, ptr %68, i32 0, i32 8
  %70 = load i32, ptr %69, align 8, !tbaa !45
  %71 = icmp ne i32 %70, 0
  br i1 %71, label %72, label %73

72:                                               ; preds = %65, %58
  store i32 -11, ptr %3, align 4
  store i32 1, ptr %9, align 4
  br label %118

73:                                               ; preds = %65
  %74 = load ptr, ptr %6, align 8, !tbaa !31
  %75 = getelementptr inbounds nuw %struct.AVCodecInternal, ptr %74, i32 0, i32 18
  %76 = load ptr, ptr %75, align 8, !tbaa !42
  %77 = load ptr, ptr %5, align 8, !tbaa !9
  %78 = call i32 @av_packet_ref(ptr noundef %76, ptr noundef %77)
  store i32 %78, ptr %8, align 4, !tbaa !41
  %79 = load i32, ptr %8, align 4, !tbaa !41
  %80 = icmp slt i32 %79, 0
  br i1 %80, label %81, label %83

81:                                               ; preds = %73
  %82 = load i32, ptr %8, align 4, !tbaa !41
  store i32 %82, ptr %3, align 4
  store i32 1, ptr %9, align 4
  br label %118

83:                                               ; preds = %73
  br label %87

84:                                               ; preds = %53, %45
  %85 = load ptr, ptr %7, align 8, !tbaa !32
  %86 = getelementptr inbounds nuw %struct.DecodeContext, ptr %85, i32 0, i32 4
  store i32 1, ptr %86, align 4, !tbaa !46
  br label %87

87:                                               ; preds = %84, %83
  %88 = load ptr, ptr %6, align 8, !tbaa !31
  %89 = getelementptr inbounds nuw %struct.AVCodecInternal, ptr %88, i32 0, i32 19
  %90 = load ptr, ptr %89, align 8, !tbaa !96
  %91 = getelementptr inbounds nuw %struct.AVFrame, ptr %90, i32 0, i32 16
  %92 = getelementptr inbounds [8 x ptr], ptr %91, i64 0, i64 0
  %93 = load ptr, ptr %92, align 8, !tbaa !54
  %94 = icmp ne ptr %93, null
  br i1 %94, label %117, label %95

95:                                               ; preds = %87
  %96 = load ptr, ptr %7, align 8, !tbaa !32
  %97 = getelementptr inbounds nuw %struct.DecodeContext, ptr %96, i32 0, i32 4
  %98 = load i32, ptr %97, align 4, !tbaa !46
  %99 = icmp ne i32 %98, 0
  br i1 %99, label %117, label %100

100:                                              ; preds = %95
  %101 = load ptr, ptr %4, align 8, !tbaa !4
  %102 = load ptr, ptr %6, align 8, !tbaa !31
  %103 = getelementptr inbounds nuw %struct.AVCodecInternal, ptr %102, i32 0, i32 19
  %104 = load ptr, ptr %103, align 8, !tbaa !96
  %105 = call i32 @decode_receive_frame_internal(ptr noundef %101, ptr noundef %104)
  store i32 %105, ptr %8, align 4, !tbaa !41
  %106 = load i32, ptr %8, align 4, !tbaa !41
  %107 = icmp slt i32 %106, 0
  br i1 %107, label %108, label %116

108:                                              ; preds = %100
  %109 = load i32, ptr %8, align 4, !tbaa !41
  %110 = icmp ne i32 %109, -11
  br i1 %110, label %111, label %116

111:                                              ; preds = %108
  %112 = load i32, ptr %8, align 4, !tbaa !41
  %113 = icmp ne i32 %112, -541478725
  br i1 %113, label %114, label %116

114:                                              ; preds = %111
  %115 = load i32, ptr %8, align 4, !tbaa !41
  store i32 %115, ptr %3, align 4
  store i32 1, ptr %9, align 4
  br label %118

116:                                              ; preds = %111, %108, %100
  br label %117

117:                                              ; preds = %116, %95, %87
  store i32 0, ptr %3, align 4
  store i32 1, ptr %9, align 4
  br label %118

118:                                              ; preds = %117, %114, %81, %72, %44, %30, %24
  call void @llvm.lifetime.end.p0(i64 4, ptr %8) #11
  call void @llvm.lifetime.end.p0(i64 8, ptr %7) #11
  call void @llvm.lifetime.end.p0(i64 8, ptr %6) #11
  %119 = load i32, ptr %3, align 4
  ret i32 %119
}