; Function Attrs: nounwind uwtable
define range(i32 -2147483648, 1) i32 @avcodec_send_packet(ptr noundef %0, ptr noundef %1) local_unnamed_addr #0 {
  %3 = getelementptr inbounds nuw i8, ptr %0, i64 40
  %4 = load ptr, ptr %3, align 8, !tbaa !4
  %5 = tail call i32 @avcodec_is_open(ptr noundef %0) #10
  %.not = icmp eq i32 %5, 0
  br i1 %.not, label %45, label %6

6:                                                ; preds = %2
  %7 = getelementptr inbounds nuw i8, ptr %0, i64 16
  %8 = load ptr, ptr %7, align 8, !tbaa !36
  %9 = tail call i32 @av_codec_is_decoder(ptr noundef %8) #10
  %.not32 = icmp eq i32 %9, 0
  br i1 %.not32, label %45, label %10

10:                                               ; preds = %6
  %11 = getelementptr inbounds nuw i8, ptr %4, i64 164
  %12 = load i32, ptr %11, align 4, !tbaa !53
  %.not33 = icmp eq i32 %12, 0
  br i1 %.not33, label %13, label %45

13:                                               ; preds = %10
  %.not34 = icmp eq ptr %1, null
  br i1 %.not34, label %.critedge, label %14

14:                                               ; preds = %13
  %15 = getelementptr inbounds nuw i8, ptr %1, i64 32
  %16 = load i32, ptr %15, align 8, !tbaa !72
  %.not35 = icmp eq i32 %16, 0
  %17 = getelementptr inbounds nuw i8, ptr %1, i64 24
  %18 = load ptr, ptr %17, align 8, !tbaa !50
  %.not36 = icmp eq ptr %18, null
  br i1 %.not35, label %19, label %20

19:                                               ; preds = %14
  br i1 %.not36, label %.thread, label %45

20:                                               ; preds = %14
  br i1 %.not36, label %.thread, label %23

.thread:                                          ; preds = %19, %20
  %21 = getelementptr inbounds nuw i8, ptr %1, i64 56
  %22 = load i32, ptr %21, align 8, !tbaa !52
  %.not38 = icmp eq i32 %22, 0
  br i1 %.not38, label %.critedge, label %23

23:                                               ; preds = %.thread, %20
  %24 = getelementptr inbounds nuw i8, ptr %4, i64 128
  %25 = load ptr, ptr %24, align 8, !tbaa !49
  %26 = getelementptr inbounds nuw i8, ptr %25, i64 24
  %27 = load ptr, ptr %26, align 8, !tbaa !50
  %.not39 = icmp eq ptr %27, null
  br i1 %.not39, label %28, label %45

28:                                               ; preds = %23
  %29 = getelementptr inbounds nuw i8, ptr %25, i64 56
  %30 = load i32, ptr %29, align 8, !tbaa !52
  %.not40 = icmp eq i32 %30, 0
  br i1 %.not40, label %31, label %45

31:                                               ; preds = %28
  %32 = tail call i32 @av_packet_ref(ptr noundef nonnull %25, ptr noundef nonnull %1) #10
  %33 = icmp slt i32 %32, 0
  br i1 %33, label %45, label %34

.critedge:                                        ; preds = %13, %.thread
  store i32 1, ptr %11, align 4, !tbaa !53
  br label %34

34:                                               ; preds = %31, %.critedge
  %35 = getelementptr inbounds nuw i8, ptr %4, i64 136
  %36 = load ptr, ptr %35, align 8, !tbaa !91
  %37 = getelementptr inbounds nuw i8, ptr %36, i64 184
  %38 = load ptr, ptr %37, align 8, !tbaa !56
  %.not41 = icmp eq ptr %38, null
  br i1 %.not41, label %39, label %44

39:                                               ; preds = %34
  %40 = load i32, ptr %11, align 4, !tbaa !53
  %.not42 = icmp eq i32 %40, 0
  br i1 %.not42, label %41, label %44

41:                                               ; preds = %39
  %42 = tail call fastcc i32 @decode_receive_frame_internal(ptr noundef nonnull %0, ptr noundef nonnull %36)
  %.fr = freeze i32 %42
  %43 = icmp slt i32 %.fr, 0
  br i1 %43, label %switch.early.test, label %44

switch.early.test:                                ; preds = %41
  switch i32 %.fr, label %45 [
    i32 -11, label %44
    i32 -541478725, label %44
  ]

44:                                               ; preds = %switch.early.test, %switch.early.test, %41, %39, %34
  br label %45

45:                                               ; preds = %switch.early.test, %31, %23, %28, %19, %10, %2, %6, %44
  %.0 = phi i32 [ 0, %44 ], [ -22, %6 ], [ -22, %2 ], [ -541478725, %10 ], [ -22, %19 ], [ -11, %28 ], [ -11, %23 ], [ %32, %31 ], [ %.fr, %switch.early.test ]
  ret i32 %.0
}